; Function Attrs: nounwind uwtable
define void @Gia_ManSimInfoTransfer(ptr noundef readonly captures(none) %0) local_unnamed_addr #1 {
  %2 = getelementptr inbounds nuw i8, ptr %0, i64 24
  %3 = load ptr, ptr %2, align 8, !tbaa !63
  %4 = getelementptr i8, ptr %3, i64 4
  %.val2237 = load i32, ptr %4, align 4, !tbaa !34
  %5 = icmp sgt i32 %.val2237, 0
  br i1 %5, label %.lr.ph, label %.critedge

.lr.ph:                                           ; preds = %1
  %6 = getelementptr i8, ptr %0, i64 16
  %7 = getelementptr i8, ptr %0, i64 48
  %8 = getelementptr i8, ptr %0, i64 56
  br label %9

9:                                                ; preds = %.lr.ph, %Gia_ManSimInfoRandom.exit
  %10 = phi ptr [ %3, %.lr.ph ], [ %44, %Gia_ManSimInfoRandom.exit ]
  %indvars.iv = phi i64 [ 0, %.lr.ph ], [ %indvars.iv.next, %Gia_ManSimInfoRandom.exit ]
  %11 = getelementptr i8, ptr %10, i64 8
  %.val25 = load ptr, ptr %11, align 8, !tbaa !36
  %12 = getelementptr inbounds nuw i32, ptr %.val25, i64 %indvars.iv
  %13 = load i32, ptr %12, align 4, !tbaa !37
  %14 = load ptr, ptr %0, align 8, !tbaa !60
  %15 = getelementptr i8, ptr %14, i64 16
  %.val28 = load i32, ptr %15, align 8, !tbaa !44
  %16 = getelementptr i8, ptr %14, i64 64
  %.val29 = load ptr, ptr %16, align 8, !tbaa !48
  %17 = getelementptr i8, ptr %.val29, i64 4
  %.val29.val = load i32, ptr %17, align 4, !tbaa !34
  %18 = sub nsw i32 %.val29.val, %.val28
  %19 = icmp slt i32 %13, %18
  %.val18 = load i32, ptr %6, align 8, !tbaa !3
  %.val19 = load ptr, ptr %7, align 8, !tbaa !14
  %20 = trunc nuw nsw i64 %indvars.iv to i32
  %21 = mul nsw i32 %.val18, %20
  %22 = sext i32 %21 to i64
  %23 = getelementptr inbounds i32, ptr %.val19, i64 %22
  br i1 %19, label %24, label %30

24:                                               ; preds = %9
  %25 = icmp sgt i32 %.val18, 0
  br i1 %25, label %.lr.ph.preheader.i, label %Gia_ManSimInfoRandom.exit

.lr.ph.preheader.i:                               ; preds = %24
  %26 = zext nneg i32 %.val18 to i64
  br label %.lr.ph.i

.lr.ph.i:                                         ; preds = %.lr.ph.i, %.lr.ph.preheader.i
  %indvars.iv.i = phi i64 [ %26, %.lr.ph.preheader.i ], [ %indvars.iv.next.i, %.lr.ph.i ]
  %indvars.iv.next.i = add nsw i64 %indvars.iv.i, -1
  %27 = tail call i32 @Gia_ManRandom(i32 noundef 0) #26
  %28 = getelementptr inbounds nuw i32, ptr %23, i64 %indvars.iv.next.i
  store i32 %27, ptr %28, align 4, !tbaa !37
  %29 = icmp samesign ugt i64 %indvars.iv.i, 1
  br i1 %29, label %.lr.ph.i, label %Gia_ManSimInfoRandom.exit.loopexit, !llvm.loop !70

30:                                               ; preds = %9
  %31 = getelementptr i8, ptr %14, i64 72
  %.val24 = load ptr, ptr %31, align 8, !tbaa !45
  %32 = getelementptr i8, ptr %.val24, i64 4
  %.val24.val = load i32, ptr %32, align 4, !tbaa !34
  %33 = sub i32 %13, %.val29.val
  %34 = add i32 %33, %.val24.val
  %.val21 = load ptr, ptr %8, align 8, !tbaa !15
  %35 = mul nsw i32 %34, %.val18
  %36 = sext i32 %35 to i64
  %37 = getelementptr inbounds i32, ptr %.val21, i64 %36
  %38 = icmp sgt i32 %.val18, 0
  br i1 %38, label %.lr.ph.preheader.i32, label %Gia_ManSimInfoRandom.exit

.lr.ph.preheader.i32:                             ; preds = %30
  %39 = zext nneg i32 %.val18 to i64
  br label %.lr.ph.i33

.lr.ph.i33:                                       ; preds = %.lr.ph.i33, %.lr.ph.preheader.i32
  %indvars.iv.i34 = phi i64 [ %39, %.lr.ph.preheader.i32 ], [ %indvars.iv.next.i35, %.lr.ph.i33 ]
  %indvars.iv.next.i35 = add nsw i64 %indvars.iv.i34, -1
  %40 = getelementptr inbounds nuw i32, ptr %37, i64 %indvars.iv.next.i35
  %41 = load i32, ptr %40, align 4, !tbaa !37
  %42 = getelementptr inbounds nuw i32, ptr %23, i64 %indvars.iv.next.i35
  store i32 %41, ptr %42, align 4, !tbaa !37
  %43 = icmp samesign ugt i64 %indvars.iv.i34, 1
  br i1 %43, label %.lr.ph.i33, label %Gia_ManSimInfoRandom.exit, !llvm.loop !72

Gia_ManSimInfoRandom.exit.loopexit:               ; preds = %.lr.ph.i
  %.pre = load ptr, ptr %2, align 8, !tbaa !63
  br label %Gia_ManSimInfoRandom.exit

Gia_ManSimInfoRandom.exit:                        ; preds = %.lr.ph.i33, %Gia_ManSimInfoRandom.exit.loopexit, %30, %24
  %44 = phi ptr [ %.pre, %Gia_ManSimInfoRandom.exit.loopexit ], [ %10, %30 ], [ %10, %24 ], [ %10, %.lr.ph.i33 ]
  %indvars.iv.next = add nuw nsw i64 %indvars.iv, 1
  %45 = getelementptr i8, ptr %44, i64 4
  %.val22 = load i32, ptr %45, align 4, !tbaa !34
  %46 = sext i32 %.val22 to i64
  %47 = icmp slt i64 %indvars.iv.next, %46
  br i1 %47, label %9, label %.critedge, !llvm.loop !73

.critedge:                                        ; preds = %Gia_ManSimInfoRandom.exit, %1
  ret void
}